target datalayout = "e-m:e-p270:32:32-p271:32:32-p272:64:64-i64:64-i128:128-f80:128-n8:16:32:64-S128"
target triple = "x86_64-pc-linux-gnu"

%struct.Wlc_Ntk_t_ = type { ptr, ptr, %struct.Vec_Int_t_, %struct.Vec_Int_t_, %struct.Vec_Int_t_, %struct.Vec_Int_t_, %struct.Vec_Int_t_, %struct.Vec_Int_t_, ptr, ptr, ptr, [60 x i32], [60 x i32], i32, i32, i32, i32, i32, ptr, i32, i32, ptr, ptr, ptr, ptr, ptr, %struct.Vec_Int_t_, %struct.Vec_Int_t_, i32, %struct.Vec_Int_t_, %struct.Vec_Int_t_, %struct.Vec_Int_t_, %struct.Vec_Int_t_, %struct.Vec_Int_t_, %struct.Vec_Int_t_ }
%struct.Vec_Int_t_ = type { i32, i32, ptr }
%struct.Vec_Ptr_t_ = type { i32, i32, ptr }
%struct.Wlc_Obj_t_ = type { i16, i32, i32, i32, %union.anon }
%union.anon = type { [1 x ptr] }

; Function Attrs: inlinehint nounwind uwtable
define internal i32 @Wlc_ObjHasArray(ptr noundef %0) #3 {
  %2 = alloca ptr, align 8
  store ptr %0, ptr %2, align 8, !tbaa !30
  %3 = load ptr, ptr %2, align 8, !tbaa !30
  %4 = getelementptr inbounds nuw %struct.Wlc_Obj_t_, ptr %3, i32 0, i32 1
  %5 = load i32, ptr %4, align 4, !tbaa !51
  %6 = icmp ugt i32 %5, 2
  br i1 %6, label %19, label %7

7:                                                ; preds = %1
  %8 = load ptr, ptr %2, align 8, !tbaa !30
  %9 = load i16, ptr %8, align 8
  %10 = and i16 %9, 63
  %11 = zext i16 %10 to i32
  %12 = icmp eq i32 %11, 6
  br i1 %12, label %19, label %13

13:                                               ; preds = %7
  %14 = load ptr, ptr %2, align 8, !tbaa !30
  %15 = load i16, ptr %14, align 8
  %16 = and i16 %15, 63
  %17 = zext i16 %16 to i32
  %18 = icmp eq i32 %17, 22
  br label %19

19:                                               ; preds = %13, %7, %1
  %20 = phi i1 [ true, %7 ], [ true, %1 ], [ %18, %13 ]
  %21 = zext i1 %20 to i32
  ret i32 %21
}

; Function Attrs: inlinehint nounwind uwtable
define internal ptr @Wlc_ObjFanins(ptr noundef %0) #3 {
  %2 = alloca ptr, align 8
  store ptr %0, ptr %2, align 8, !tbaa !30
  %3 = load ptr, ptr %2, align 8, !tbaa !30
  %4 = call i32 @Wlc_ObjHasArray(ptr noundef %3)
  %5 = icmp ne i32 %4, 0
  br i1 %5, label %6, label %11

6:                                                ; preds = %1
  %7 = load ptr, ptr %2, align 8, !tbaa !30
  %8 = getelementptr inbounds nuw %struct.Wlc_Obj_t_, ptr %7, i32 0, i32 4
  %9 = getelementptr inbounds [1 x ptr], ptr %8, i64 0, i64 0
  %10 = load ptr, ptr %9, align 8, !tbaa !40
  br label %15

11:                                               ; preds = %1
  %12 = load ptr, ptr %2, align 8, !tbaa !30
  %13 = getelementptr inbounds nuw %struct.Wlc_Obj_t_, ptr %12, i32 0, i32 4
  %14 = getelementptr inbounds [2 x i32], ptr %13, i64 0, i64 0
  br label %15

15:                                               ; preds = %11, %6
  %16 = phi ptr [ %10, %6 ], [ %14, %11 ]
  ret ptr %16
}

; Function Attrs: inlinehint nounwind uwtable
define internal i32 @Wlc_ObjFaninId(ptr noundef %0, i32 noundef %1) #3 {
  %3 = alloca ptr, align 8
  %4 = alloca i32, align 4
  store ptr %0, ptr %3, align 8, !tbaa !30
  store i32 %1, ptr %4, align 4, !tbaa !8
  %5 = load ptr, ptr %3, align 8, !tbaa !30
  %6 = call ptr @Wlc_ObjFanins(ptr noundef %5)
  %7 = load i32, ptr %4, align 4, !tbaa !8
  %8 = sext i32 %7 to i64
  %9 = getelementptr inbounds i32, ptr %6, i64 %8
  %10 = load i32, ptr %9, align 4, !tbaa !8
  ret i32 %10
}

; Function Attrs: inlinehint nounwind uwtable
define internal ptr @Vec_IntAlloc(i32 noundef %0) #3 {
  %2 = alloca i32, align 4
  %3 = alloca ptr, align 8
  store i32 %0, ptr %2, align 4, !tbaa !8
  call void @llvm.lifetime.start.p0(i64 8, ptr %3) #10
  %4 = call noalias ptr @malloc(i64 noundef 16) #12
  store ptr %4, ptr %3, align 8, !tbaa !29
  %5 = load i32, ptr %2, align 4, !tbaa !8
  %6 = icmp sgt i32 %5, 0
  br i1 %6, label %7, label %11

7:                                                ; preds = %1
  %8 = load i32, ptr %2, align 4, !tbaa !8
  %9 = icmp slt i32 %8, 16
  br i1 %9, label %10, label %11

10:                                               ; preds = %7
  store i32 16, ptr %2, align 4, !tbaa !8
  br label %11

11:                                               ; preds = %10, %7, %1
  %12 = load ptr, ptr %3, align 8, !tbaa !29
  %13 = getelementptr inbounds nuw %struct.Vec_Int_t_, ptr %12, i32 0, i32 1
  store i32 0, ptr %13, align 4, !tbaa !36
  %14 = load i32, ptr %2, align 4, !tbaa !8
  %15 = load ptr, ptr %3, align 8, !tbaa !29
  %16 = getelementptr inbounds nuw %struct.Vec_Int_t_, ptr %15, i32 0, i32 0
  store i32 %14, ptr %16, align 8, !tbaa !47
  %17 = load ptr, ptr %3, align 8, !tbaa !29
  %18 = getelementptr inbounds nuw %struct.Vec_Int_t_, ptr %17, i32 0, i32 0
  %19 = load i32, ptr %18, align 8, !tbaa !47
  %20 = icmp ne i32 %19, 0
  br i1 %20, label %21, label %28

21:                                               ; preds = %11
  %22 = load ptr, ptr %3, align 8, !tbaa !29
  %23 = getelementptr inbounds nuw %struct.Vec_Int_t_, ptr %22, i32 0, i32 0
  %24 = load i32, ptr %23, align 8, !tbaa !47
  %25 = sext i32 %24 to i64
  %26 = mul i64 4, %25
  %27 = call noalias ptr @malloc(i64 noundef %26) #12
  br label %29

28:                                               ; preds = %11
  br label %29

29:                                               ; preds = %28, %21
  %30 = phi ptr [ %27, %21 ], [ null, %28 ]
  %31 = load ptr, ptr %3, align 8, !tbaa !29
  %32 = getelementptr inbounds nuw %struct.Vec_Int_t_, ptr %31, i32 0, i32 2
  store ptr %30, ptr %32, align 8, !tbaa !37
  %33 = load ptr, ptr %3, align 8, !tbaa !29
  call void @llvm.lifetime.end.p0(i64 8, ptr %3) #10
  ret ptr %33
}

; Function Attrs: inlinehint nounwind uwtable
define internal void @Vec_IntFree(ptr noundef %0) #3 {
  %2 = alloca ptr, align 8
  store ptr %0, ptr %2, align 8, !tbaa !29
  %3 = load ptr, ptr %2, align 8, !tbaa !29
  %4 = getelementptr inbounds nuw %struct.Vec_Int_t_, ptr %3, i32 0, i32 2
  %5 = load ptr, ptr %4, align 8, !tbaa !37
  %6 = icmp ne ptr %5, null
  br i1 %6, label %7, label %13

7:                                                ; preds = %1
  %8 = load ptr, ptr %2, align 8, !tbaa !29
  %9 = getelementptr inbounds nuw %struct.Vec_Int_t_, ptr %8, i32 0, i32 2
  %10 = load ptr, ptr %9, align 8, !tbaa !37
  call void @free(ptr noundef %10) #10
  %11 = load ptr, ptr %2, align 8, !tbaa !29
  %12 = getelementptr inbounds nuw %struct.Vec_Int_t_, ptr %11, i32 0, i32 2
  store ptr null, ptr %12, align 8, !tbaa !37
  br label %14

13:                                               ; preds = %1
  br label %14

14:                                               ; preds = %13, %7
  %15 = load ptr, ptr %2, align 8, !tbaa !29
  %16 = icmp ne ptr %15, null
  br i1 %16, label %17, label %19

17:                                               ; preds = %14
  %18 = load ptr, ptr %2, align 8, !tbaa !29
  call void @free(ptr noundef %18) #10
  store ptr null, ptr %2, align 8, !tbaa !29
  br label %20

19:                                               ; preds = %14
  br label %20

20:                                               ; preds = %19, %17
  ret void
}

; Function Attrs: inlinehint nounwind uwtable
define internal i32 @Wlc_ObjRange(ptr noundef %0) #3 {
  %2 = alloca ptr, align 8
  store ptr %0, ptr %2, align 8, !tbaa !30
  %3 = load ptr, ptr %2, align 8, !tbaa !30
  %4 = getelementptr inbounds nuw %struct.Wlc_Obj_t_, ptr %3, i32 0, i32 2
  %5 = load i32, ptr %4, align 8, !tbaa !43
  %6 = load ptr, ptr %2, align 8, !tbaa !30
  %7 = getelementptr inbounds nuw %struct.Wlc_Obj_t_, ptr %6, i32 0, i32 3
  %8 = load i32, ptr %7, align 4, !tbaa !45
  %9 = icmp sge i32 %5, %8
  br i1 %9, label %10, label %18

10:                                               ; preds = %1
  %11 = load ptr, ptr %2, align 8, !tbaa !30
  %12 = getelementptr inbounds nuw %struct.Wlc_Obj_t_, ptr %11, i32 0, i32 2
  %13 = load i32, ptr %12, align 8, !tbaa !43
  %14 = load ptr, ptr %2, align 8, !tbaa !30
  %15 = getelementptr inbounds nuw %struct.Wlc_Obj_t_, ptr %14, i32 0, i32 3
  %16 = load i32, ptr %15, align 4, !tbaa !45
  %17 = sub nsw i32 %13, %16
  br label %26

18:                                               ; preds = %1
  %19 = load ptr, ptr %2, align 8, !tbaa !30
  %20 = getelementptr inbounds nuw %struct.Wlc_Obj_t_, ptr %19, i32 0, i32 3
  %21 = load i32, ptr %20, align 4, !tbaa !45
  %22 = load ptr, ptr %2, align 8, !tbaa !30
  %23 = getelementptr inbounds nuw %struct.Wlc_Obj_t_, ptr %22, i32 0, i32 2
  %24 = load i32, ptr %23, align 8, !tbaa !43
  %25 = sub nsw i32 %21, %24
  br label %26

26:                                               ; preds = %18, %10
  %27 = phi i32 [ %17, %10 ], [ %25, %18 ]
  %28 = add nsw i32 1, %27
  ret i32 %28
}

; Function Attrs: inlinehint nounwind uwtable
define internal ptr @Wlc_ObjFanin0(ptr noundef %0, ptr noundef %1) #3 {
  %3 = alloca ptr, align 8
  %4 = alloca ptr, align 8
  store ptr %0, ptr %3, align 8, !tbaa !16
  store ptr %1, ptr %4, align 8, !tbaa !30
  %5 = load ptr, ptr %3, align 8, !tbaa !16
  %6 = load ptr, ptr %4, align 8, !tbaa !30
  %7 = call i32 @Wlc_ObjFaninId(ptr noundef %6, i32 noundef 0)
  %8 = call ptr @Wlc_NtkObj(ptr noundef %5, i32 noundef %7)
  ret ptr %8
}

; Function Attrs: inlinehint nounwind uwtable
define internal i32 @Vec_IntEntry(ptr noundef %0, i32 noundef %1) #3 {
  %3 = alloca ptr, align 8
  %4 = alloca i32, align 4
  store ptr %0, ptr %3, align 8, !tbaa !29
  store i32 %1, ptr %4, align 4, !tbaa !8
  %5 = load ptr, ptr %3, align 8, !tbaa !29
  %6 = getelementptr inbounds nuw %struct.Vec_Int_t_, ptr %5, i32 0, i32 2
  %7 = load ptr, ptr %6, align 8, !tbaa !37
  %8 = load i32, ptr %4, align 4, !tbaa !8
  %9 = sext i32 %8 to i64
  %10 = getelementptr inbounds i32, ptr %7, i64 %9
  %11 = load i32, ptr %10, align 4, !tbaa !8
  ret i32 %11
}

; Function Attrs: inlinehint nounwind uwtable
define internal ptr @Vec_PtrEntry(ptr noundef %0, i32 noundef %1) #3 {
  %3 = alloca ptr, align 8
  %4 = alloca i32, align 4
  store ptr %0, ptr %3, align 8, !tbaa !33
  store i32 %1, ptr %4, align 4, !tbaa !8
  %5 = load ptr, ptr %3, align 8, !tbaa !33
  %6 = getelementptr inbounds nuw %struct.Vec_Ptr_t_, ptr %5, i32 0, i32 2
  %7 = load ptr, ptr %6, align 8, !tbaa !41
  %8 = load i32, ptr %4, align 4, !tbaa !8
  %9 = sext i32 %8 to i64
  %10 = getelementptr inbounds ptr, ptr %7, i64 %9
  %11 = load ptr, ptr %10, align 8, !tbaa !42
  ret ptr %11
}

; Function Attrs: inlinehint nounwind uwtable
define internal void @Vec_IntWriteEntry(ptr noundef %0, i32 noundef %1, i32 noundef %2) #3 {
  %4 = alloca ptr, align 8
  %5 = alloca i32, align 4
  %6 = alloca i32, align 4
  store ptr %0, ptr %4, align 8, !tbaa !29
  store i32 %1, ptr %5, align 4, !tbaa !8
  store i32 %2, ptr %6, align 4, !tbaa !8
  %7 = load i32, ptr %6, align 4, !tbaa !8
  %8 = load ptr, ptr %4, align 8, !tbaa !29
  %9 = getelementptr inbounds nuw %struct.Vec_Int_t_, ptr %8, i32 0, i32 2
  %10 = load ptr, ptr %9, align 8, !tbaa !37
  %11 = load i32, ptr %5, align 4, !tbaa !8
  %12 = sext i32 %11 to i64
  %13 = getelementptr inbounds i32, ptr %10, i64 %12
  store i32 %7, ptr %13, align 4, !tbaa !8
  ret void
}

; Function Attrs: inlinehint nounwind uwtable
define internal i32 @Wlc_ObjTableId(ptr noundef %0) #3 {
  %2 = alloca ptr, align 8
  store ptr %0, ptr %2, align 8, !tbaa !30
  %3 = load ptr, ptr %2, align 8, !tbaa !30
  %4 = getelementptr inbounds nuw %struct.Wlc_Obj_t_, ptr %3, i32 0, i32 4
  %5 = getelementptr inbounds [2 x i32], ptr %4, i64 0, i64 1
  %6 = load i32, ptr %5, align 4, !tbaa !40
  ret i32 %6
}

; Function Attrs: inlinehint nounwind uwtable
define internal ptr @Wlc_NtkObj(ptr noundef %0, i32 noundef %1) #3 {
  %3 = alloca ptr, align 8
  %4 = alloca i32, align 4
  store ptr %0, ptr %3, align 8, !tbaa !16
  store i32 %1, ptr %4, align 4, !tbaa !8
  %5 = load ptr, ptr %3, align 8, !tbaa !16
  %6 = getelementptr inbounds nuw %struct.Wlc_Ntk_t_, ptr %5, i32 0, i32 18
  %7 = load ptr, ptr %6, align 8, !tbaa !39
  %8 = load i32, ptr %4, align 4, !tbaa !8
  %9 = sext i32 %8 to i64
  %10 = getelementptr inbounds %struct.Wlc_Obj_t_, ptr %7, i64 %9
  ret ptr %10
}

; Function Attrs: inlinehint nounwind uwtable
define internal i32 @Wlc_NtkObjNumMax(ptr noundef %0) #3 {
  %2 = alloca ptr, align 8
  store ptr %0, ptr %2, align 8, !tbaa !16
  %3 = load ptr, ptr %2, align 8, !tbaa !16
  %4 = getelementptr inbounds nuw %struct.Wlc_Ntk_t_, ptr %3, i32 0, i32 19
  %5 = load i32, ptr %4, align 8, !tbaa !38
  ret i32 %5
}

; Function Attrs: inlinehint nounwind uwtable
define internal ptr @Vec_IntStart(i32 noundef %0) #3 {
  %2 = alloca i32, align 4
  %3 = alloca ptr, align 8
  store i32 %0, ptr %2, align 4, !tbaa !8
  call void @llvm.lifetime.start.p0(i64 8, ptr %3) #10
  %4 = load i32, ptr %2, align 4, !tbaa !8
  %5 = call ptr @Vec_IntAlloc(i32 noundef %4)
  store ptr %5, ptr %3, align 8, !tbaa !29
  %6 = load i32, ptr %2, align 4, !tbaa !8
  %7 = load ptr, ptr %3, align 8, !tbaa !29
  %8 = getelementptr inbounds nuw %struct.Vec_Int_t_, ptr %7, i32 0, i32 1
  store i32 %6, ptr %8, align 4, !tbaa !36
  %9 = load ptr, ptr %3, align 8, !tbaa !29
  %10 = getelementptr inbounds nuw %struct.Vec_Int_t_, ptr %9, i32 0, i32 2
  %11 = load ptr, ptr %10, align 8, !tbaa !37
  %12 = icmp ne ptr %11, null
  br i1 %12, label %13, label %20

13:                                               ; preds = %1
  %14 = load ptr, ptr %3, align 8, !tbaa !29
  %15 = getelementptr inbounds nuw %struct.Vec_Int_t_, ptr %14, i32 0, i32 2
  %16 = load ptr, ptr %15, align 8, !tbaa !37
  %17 = load i32, ptr %2, align 4, !tbaa !8
  %18 = sext i32 %17 to i64
  %19 = mul i64 4, %18
  call void @llvm.memset.p0.i64(ptr align 4 %16, i8 0, i64 %19, i1 false)
  br label %20

20:                                               ; preds = %13, %1
  %21 = load ptr, ptr %3, align 8, !tbaa !29
  call void @llvm.lifetime.end.p0(i64 8, ptr %3) #10
  ret ptr %21
}

; Function Attrs: inlinehint nounwind uwtable
define internal i32 @Vec_PtrSize(ptr noundef %0) #3 {
  %2 = alloca ptr, align 8
  store ptr %0, ptr %2, align 8, !tbaa !33
  %3 = load ptr, ptr %2, align 8, !tbaa !33
  %4 = getelementptr inbounds nuw %struct.Vec_Ptr_t_, ptr %3, i32 0, i32 1
  %5 = load i32, ptr %4, align 4, !tbaa !34
  ret i32 %5
}

; Function Attrs: nounwind uwtable
define void @Wlc_WriteTables(ptr noundef %0, ptr noundef %1) #0 {
  %3 = alloca ptr, align 8
  %4 = alloca ptr, align 8
  %5 = alloca ptr, align 8
  %6 = alloca ptr, align 8
  %7 = alloca ptr, align 8
  %8 = alloca ptr, align 8
  %9 = alloca i32, align 4
  %10 = alloca i32, align 4
  store ptr %0, ptr %3, align 8, !tbaa !3
  store ptr %1, ptr %4, align 8, !tbaa !16
  call void @llvm.lifetime.start.p0(i64 8, ptr %5) #10
  call void @llvm.lifetime.start.p0(i64 8, ptr %6) #10
  call void @llvm.lifetime.start.p0(i64 8, ptr %7) #10
  call void @llvm.lifetime.start.p0(i64 8, ptr %8) #10
  call void @llvm.lifetime.start.p0(i64 4, ptr %9) #10
  %11 = load ptr, ptr %4, align 8, !tbaa !16
  %12 = getelementptr inbounds nuw %struct.Wlc_Ntk_t_, ptr %11, i32 0, i32 23
  %13 = load ptr, ptr %12, align 8, !tbaa !18
  %14 = icmp eq ptr %13, null
  br i1 %14, label %21, label %15

15:                                               ; preds = %2
  %16 = load ptr, ptr %4, align 8, !tbaa !16
  %17 = getelementptr inbounds nuw %struct.Wlc_Ntk_t_, ptr %16, i32 0, i32 23
  %18 = load ptr, ptr %17, align 8, !tbaa !18
  %19 = call i32 @Vec_PtrSize(ptr noundef %18)
  %20 = icmp eq i32 %19, 0
  br i1 %20, label %21, label %22

21:                                               ; preds = %15, %2
  store i32 1, ptr %10, align 4
  br label %91

22:                                               ; preds = %15
  %23 = load ptr, ptr %4, align 8, !tbaa !16
  %24 = getelementptr inbounds nuw %struct.Wlc_Ntk_t_, ptr %23, i32 0, i32 23
  %25 = load ptr, ptr %24, align 8, !tbaa !18
  %26 = call i32 @Vec_PtrSize(ptr noundef %25)
  %27 = call ptr @Vec_IntStart(i32 noundef %26)
  store ptr %27, ptr %5, align 8, !tbaa !29
  store i32 1, ptr %9, align 4, !tbaa !8
  br label %28

28:                                               ; preds = %51, %22
  %29 = load i32, ptr %9, align 4, !tbaa !8
  %30 = load ptr, ptr %4, align 8, !tbaa !16
  %31 = call i32 @Wlc_NtkObjNumMax(ptr noundef %30)
  %32 = icmp slt i32 %29, %31
  br i1 %32, label %33, label %37

33:                                               ; preds = %28
  %34 = load ptr, ptr %4, align 8, !tbaa !16
  %35 = load i32, ptr %9, align 4, !tbaa !8
  %36 = call ptr @Wlc_NtkObj(ptr noundef %34, i32 noundef %35)
  store ptr %36, ptr %6, align 8, !tbaa !30
  br label %37

37:                                               ; preds = %33, %28
  %38 = phi i1 [ false, %28 ], [ true, %33 ]
  br i1 %38, label %39, label %54

39:                                               ; preds = %37
  %40 = load ptr, ptr %6, align 8, !tbaa !30
  %41 = load i16, ptr %40, align 8
  %42 = and i16 %41, 63
  %43 = zext i16 %42 to i32
  %44 = icmp eq i32 %43, 53
  br i1 %44, label %45, label %50

45:                                               ; preds = %39
  %46 = load ptr, ptr %5, align 8, !tbaa !29
  %47 = load ptr, ptr %6, align 8, !tbaa !30
  %48 = call i32 @Wlc_ObjTableId(ptr noundef %47)
  %49 = load i32, ptr %9, align 4, !tbaa !8
  call void @Vec_IntWriteEntry(ptr noundef %46, i32 noundef %48, i32 noundef %49)
  br label %50

50:                                               ; preds = %45, %39
  br label %51

51:                                               ; preds = %50
  %52 = load i32, ptr %9, align 4, !tbaa !8
  %53 = add nsw i32 %52, 1
  store i32 %53, ptr %9, align 4, !tbaa !8
  br label %28, !llvm.loop !31

54:                                               ; preds = %37
  store i32 0, ptr %9, align 4, !tbaa !8
  br label %55

55:                                               ; preds = %86, %54
  %56 = load i32, ptr %9, align 4, !tbaa !8
  %57 = load ptr, ptr %4, align 8, !tbaa !16
  %58 = getelementptr inbounds nuw %struct.Wlc_Ntk_t_, ptr %57, i32 0, i32 23
  %59 = load ptr, ptr %58, align 8, !tbaa !18
  %60 = call i32 @Vec_PtrSize(ptr noundef %59)
  %61 = icmp slt i32 %56, %60
  br i1 %61, label %62, label %68

62:                                               ; preds = %55
  %63 = load ptr, ptr %4, align 8, !tbaa !16
  %64 = getelementptr inbounds nuw %struct.Wlc_Ntk_t_, ptr %63, i32 0, i32 23
  %65 = load ptr, ptr %64, align 8, !tbaa !18
  %66 = load i32, ptr %9, align 4, !tbaa !8
  %67 = call ptr @Vec_PtrEntry(ptr noundef %65, i32 noundef %66)
  store ptr %67, ptr %8, align 8, !tbaa !10
  br label %68

68:                                               ; preds = %62, %55
  %69 = phi i1 [ false, %55 ], [ true, %62 ]
  br i1 %69, label %70, label %89

70:                                               ; preds = %68
  %71 = load ptr, ptr %4, align 8, !tbaa !16
  %72 = load ptr, ptr %5, align 8, !tbaa !29
  %73 = load i32, ptr %9, align 4, !tbaa !8
  %74 = call i32 @Vec_IntEntry(ptr noundef %72, i32 noundef %73)
  %75 = call ptr @Wlc_NtkObj(ptr noundef %71, i32 noundef %74)
  store ptr %75, ptr %6, align 8, !tbaa !30
  %76 = load ptr, ptr %4, align 8, !tbaa !16
  %77 = load ptr, ptr %6, align 8, !tbaa !30
  %78 = call ptr @Wlc_ObjFanin0(ptr noundef %76, ptr noundef %77)
  store ptr %78, ptr %7, align 8, !tbaa !30
  %79 = load ptr, ptr %3, align 8, !tbaa !3
  %80 = load ptr, ptr %7, align 8, !tbaa !30
  %81 = call i32 @Wlc_ObjRange(ptr noundef %80)
  %82 = load ptr, ptr %6, align 8, !tbaa !30
  %83 = call i32 @Wlc_ObjRange(ptr noundef %82)
  %84 = load ptr, ptr %8, align 8, !tbaa !10
  %85 = load i32, ptr %9, align 4, !tbaa !8
  call void @Wlc_WriteTableOne(ptr noundef %79, i32 noundef %81, i32 noundef %83, ptr noundef %84, i32 noundef %85)
  br label %86

86:                                               ; preds = %70
  %87 = load i32, ptr %9, align 4, !tbaa !8
  %88 = add nsw i32 %87, 1
  store i32 %88, ptr %9, align 4, !tbaa !8
  br label %55, !llvm.loop !32

89:                                               ; preds = %68
  %90 = load ptr, ptr %5, align 8, !tbaa !29
  call void @Vec_IntFree(ptr noundef %90)
  store i32 0, ptr %10, align 4
  br label %91

91:                                               ; preds = %89, %21
  call void @llvm.lifetime.end.p0(i64 4, ptr %9) #10
  call void @llvm.lifetime.end.p0(i64 8, ptr %8) #10
  call void @llvm.lifetime.end.p0(i64 8, ptr %7) #10
  call void @llvm.lifetime.end.p0(i64 8, ptr %6) #10
  call void @llvm.lifetime.end.p0(i64 8, ptr %5) #10
  %92 = load i32, ptr %10, align 4
  switch i32 %92, label %94 [
    i32 0, label %93
    i32 1, label %93
  ]

93:                                               ; preds = %91, %91
  ret void

94:                                               ; preds = %91
  unreachable
}