; Function Attrs: nounwind uwtable
define void @Wlc_WriteTables(ptr noundef captures(none) %0, ptr noundef readonly captures(none) %1) local_unnamed_addr #3 {
  %3 = getelementptr inbounds nuw i8, ptr %1, i64 672
  %4 = load ptr, ptr %3, align 8, !tbaa !9
  %5 = icmp eq ptr %4, null
  br i1 %5, label %Vec_IntFree.exit, label %6

6:                                                ; preds = %2
  %7 = getelementptr i8, ptr %4, i64 4
  %.val = load i32, ptr %7, align 4, !tbaa !22
  %8 = icmp eq i32 %.val, 0
  br i1 %8, label %Vec_IntFree.exit, label %Vec_IntAlloc.exit.i

Vec_IntAlloc.exit.i:                              ; preds = %6
  %spec.store.select.i.i = tail call i32 @llvm.umax.i32(i32 %.val, i32 16)
  %9 = sext i32 %spec.store.select.i.i to i64
  %10 = shl nsw i64 %9, 2
  %11 = tail call noalias ptr @malloc(i64 noundef %10) #14
  %.not.i = icmp eq ptr %11, null
  br i1 %.not.i, label %Vec_IntStart.exit, label %12

12:                                               ; preds = %Vec_IntAlloc.exit.i
  %13 = sext i32 %.val to i64
  %14 = shl nsw i64 %13, 2
  tail call void @llvm.memset.p0.i64(ptr nonnull align 4 %11, i8 0, i64 %14, i1 false)
  br label %Vec_IntStart.exit

Vec_IntStart.exit:                                ; preds = %Vec_IntAlloc.exit.i, %12
  %15 = getelementptr i8, ptr %1, i64 648
  %.val3244 = load i32, ptr %15, align 8, !tbaa !24
  %16 = icmp sgt i32 %.val3244, 1
  br i1 %16, label %.lr.ph, label %.critedge.preheader

.lr.ph:                                           ; preds = %Vec_IntStart.exit
  %17 = getelementptr i8, ptr %1, i64 640
  %.val33 = load ptr, ptr %17, align 8, !tbaa !25
  %18 = zext nneg i32 %.val3244 to i64
  br label %21

.critedge.preheader:                              ; preds = %31, %Vec_IntStart.exit
  %19 = icmp sgt i32 %.val, 0
  br i1 %19, label %.lr.ph48, label %.critedge2

.lr.ph48:                                         ; preds = %.critedge.preheader
  %20 = getelementptr i8, ptr %1, i64 640
  br label %33

21:                                               ; preds = %.lr.ph, %31
  %indvars.iv = phi i64 [ 1, %.lr.ph ], [ %indvars.iv.next, %31 ]
  %22 = getelementptr inbounds nuw %struct.Wlc_Obj_t_, ptr %.val33, i64 %indvars.iv
  %23 = load i16, ptr %22, align 8
  %24 = and i16 %23, 63
  %25 = icmp eq i16 %24, 53
  br i1 %25, label %26, label %31

26:                                               ; preds = %21
  %27 = getelementptr i8, ptr %22, i64 20
  %.val35 = load i32, ptr %27, align 4, !tbaa !26
  %28 = sext i32 %.val35 to i64
  %29 = getelementptr inbounds i32, ptr %11, i64 %28
  %30 = trunc nuw nsw i64 %indvars.iv to i32
  store i32 %30, ptr %29, align 4, !tbaa !27
  br label %31

31:                                               ; preds = %21, %26
  %indvars.iv.next = add nuw nsw i64 %indvars.iv, 1
  %32 = icmp samesign ult i64 %indvars.iv.next, %18
  br i1 %32, label %21, label %.critedge.preheader, !llvm.loop !28

33:                                               ; preds = %.lr.ph48, %Wlc_ObjFanin0.exit
  %indvars.iv50 = phi i64 [ 0, %.lr.ph48 ], [ %indvars.iv.next51, %Wlc_ObjFanin0.exit ]
  %34 = phi ptr [ %4, %.lr.ph48 ], [ %67, %Wlc_ObjFanin0.exit ]
  %35 = getelementptr i8, ptr %34, i64 8
  %.val37 = load ptr, ptr %35, align 8, !tbaa !29
  %36 = getelementptr inbounds nuw ptr, ptr %.val37, i64 %indvars.iv50
  %37 = load ptr, ptr %36, align 8, !tbaa !30
  %38 = getelementptr inbounds nuw i32, ptr %11, i64 %indvars.iv50
  %39 = load i32, ptr %38, align 4, !tbaa !27
  %.val34 = load ptr, ptr %20, align 8, !tbaa !25
  %40 = sext i32 %39 to i64
  %41 = getelementptr inbounds %struct.Wlc_Obj_t_, ptr %.val34, i64 %40
  %42 = getelementptr inbounds nuw i8, ptr %41, i64 4
  %43 = load i32, ptr %42, align 4, !tbaa !31
  %44 = icmp ugt i32 %43, 2
  br i1 %44, label %Wlc_ObjHasArray.exit.thread.i.i.i, label %45

45:                                               ; preds = %33
  %46 = load i16, ptr %41, align 8
  %47 = and i16 %46, 63
  switch i16 %47, label %50 [
    i16 6, label %Wlc_ObjHasArray.exit.thread.i.i.i
    i16 22, label %Wlc_ObjHasArray.exit.thread.i.i.i
  ]

Wlc_ObjHasArray.exit.thread.i.i.i:                ; preds = %45, %45, %33
  %48 = getelementptr inbounds nuw i8, ptr %41, i64 16
  %49 = load ptr, ptr %48, align 8, !tbaa !26
  br label %Wlc_ObjFanin0.exit

50:                                               ; preds = %45
  %51 = getelementptr inbounds nuw i8, ptr %41, i64 16
  br label %Wlc_ObjFanin0.exit

Wlc_ObjFanin0.exit:                               ; preds = %Wlc_ObjHasArray.exit.thread.i.i.i, %50
  %52 = phi ptr [ %49, %Wlc_ObjHasArray.exit.thread.i.i.i ], [ %51, %50 ]
  %53 = load i32, ptr %52, align 4, !tbaa !27
  %54 = sext i32 %53 to i64
  %55 = getelementptr inbounds %struct.Wlc_Obj_t_, ptr %.val34, i64 %54
  %56 = getelementptr i8, ptr %55, i64 8
  %.val39 = load i32, ptr %56, align 8, !tbaa !33
  %57 = getelementptr i8, ptr %55, i64 12
  %.val40 = load i32, ptr %57, align 4, !tbaa !34
  %58 = sub nsw i32 %.val39, %.val40
  %59 = tail call i32 @llvm.abs.i32(i32 %58, i1 true)
  %60 = add nuw nsw i32 %59, 1
  %61 = getelementptr i8, ptr %41, i64 8
  %.val41 = load i32, ptr %61, align 8, !tbaa !33
  %62 = getelementptr i8, ptr %41, i64 12
  %.val42 = load i32, ptr %62, align 4, !tbaa !34
  %63 = sub nsw i32 %.val41, %.val42
  %64 = tail call i32 @llvm.abs.i32(i32 %63, i1 true)
  %65 = add nuw nsw i32 %64, 1
  %66 = trunc nuw nsw i64 %indvars.iv50 to i32
  tail call void @Wlc_WriteTableOne(ptr noundef %0, i32 noundef %60, i32 noundef %65, ptr noundef %37, i32 noundef %66)
  %indvars.iv.next51 = add nuw nsw i64 %indvars.iv50, 1
  %67 = load ptr, ptr %3, align 8, !tbaa !9
  %68 = getelementptr i8, ptr %67, i64 4
  %.val31 = load i32, ptr %68, align 4, !tbaa !22
  %69 = sext i32 %.val31 to i64
  %70 = icmp slt i64 %indvars.iv.next51, %69
  br i1 %70, label %33, label %.critedge2.thread, !llvm.loop !35

.critedge2:                                       ; preds = %.critedge.preheader
  br i1 %.not.i, label %Vec_IntFree.exit, label %.critedge2.thread

.critedge2.thread:                                ; preds = %Wlc_ObjFanin0.exit, %.critedge2
  tail call void @free(ptr noundef nonnull %11) #13
  br label %Vec_IntFree.exit

Vec_IntFree.exit:                                 ; preds = %.critedge2.thread, %.critedge2, %2, %6
  ret void
}